target datalayout = "e-m:e-p270:32:32-p271:32:32-p272:64:64-i64:64-i128:128-f80:128-n8:16:32:64-S128"
target triple = "x86_64-pc-linux-gnu"

%struct.darktable_t = type { %struct.dt_codepath_t, i32, i32, ptr, ptr, ptr, ptr, ptr, ptr, ptr, ptr, ptr, ptr, ptr, ptr, ptr, ptr, ptr, ptr, ptr, ptr, ptr, ptr, ptr, ptr, ptr, ptr, ptr, ptr, ptr, [64 x %struct.dt_pthread_mutex_t], %struct.dt_pthread_mutex_t, %struct.dt_pthread_mutex_t, %struct.dt_pthread_mutex_t, %struct.dt_pthread_mutex_t, %struct.dt_pthread_mutex_t, ptr, ptr, ptr, ptr, ptr, ptr, ptr, ptr, ptr, ptr, ptr, ptr, ptr, %struct.dt_lua_state_t, ptr, double, ptr, i32, [47 x i32], i32, i32, ptr, ptr, %struct.dt_sys_resources_t, %struct.dt_backthumb_t, %struct.dt_gimp_t }
%struct.dt_codepath_t = type { i8, [3 x i8] }
%struct.dt_pthread_mutex_t = type { %union.pthread_mutex_t }
%union.pthread_mutex_t = type { %struct.__pthread_mutex_s }
%struct.__pthread_mutex_s = type { i32, i32, i32, i32, i32, i16, i16, %struct.__pthread_internal_list }
%struct.__pthread_internal_list = type { ptr, ptr }
%struct.dt_lua_state_t = type { i32 }
%struct.dt_sys_resources_t = type { i64, i64, ptr, ptr, i32 }
%struct.dt_backthumb_t = type { double, double, i32, i32, i32, i32 }
%struct.dt_gimp_t = type { i32, ptr, ptr, i32, i32 }
%struct.dt_action_t = type { i32, ptr, ptr, ptr, ptr, ptr }
%struct.dt_control_t = type { i32, ptr, %struct.dt_action_t, %struct.dt_action_t, %struct.dt_action_t, %struct.dt_action_t, %struct.dt_action_t, %struct.dt_action_t, %struct.dt_action_t, %struct.dt_action_t, %struct.dt_action_t, %struct.dt_action_t, %struct.dt_action_t, ptr, ptr, ptr, i32, ptr, i32, i32, ptr, ptr, [256 x i8], i32, double, i32, i32, i64, i32, i32, i32, double, double, i32, i32, i32, i32, i32, i32, [8 x [1000 x i8]], i32, i32, %struct.dt_pthread_mutex_t, i32, i32, [2 x [300 x i8]], i32, i32, %struct.dt_pthread_mutex_t, %struct.dt_pthread_mutex_t, %struct.dt_pthread_mutex_t, double, i32, i32, i32, %struct.dt_pthread_mutex_t, %struct.dt_pthread_mutex_t, %union.pthread_cond_t, i32, ptr, i64, i64, ptr, [5 x ptr], [5 x i64], %struct.dt_pthread_mutex_t, [3 x ptr], [3 x i8], [3 x i64], %struct.anon.0, %struct.anon.2 }
%union.pthread_cond_t = type { %struct.__pthread_cond_s }
%struct.__pthread_cond_s = type { %union.__atomic_wide_counter, %union.__atomic_wide_counter, [2 x i32], [2 x i32], i32, i32, [2 x i32] }
%union.__atomic_wide_counter = type { i64 }
%struct.anon.0 = type { ptr, i64, i64, double, %struct.dt_pthread_mutex_t, %struct.anon.1 }
%struct.anon.1 = type { ptr, ptr, ptr, ptr, ptr, ptr }
%struct.anon.2 = type { %struct.anon.3 }
%struct.anon.3 = type { ptr, ptr }
%struct._GdkEventButton = type { i32, ptr, i8, i32, double, double, ptr, i32, i32, ptr, double, double }

@darktable = external global %struct.darktable_t, align 8
@dt_modifier_shortcuts = external global i32, align 4
@_lib_keymap_button_press_release.start_time = internal global i32 0, align 4
@.str.51 = private unnamed_addr constant [20 x i8] c"gtk-long-press-time\00", align 1

; Function Attrs: inlinehint nounwind uwtable
define internal i32 @dt_modifier_is(i32 noundef %0, i32 noundef %1) #6 {
  %3 = alloca i32, align 4
  %4 = alloca i32, align 4
  %5 = alloca i32, align 4
  store i32 %0, ptr %3, align 4, !tbaa !97
  store i32 %1, ptr %4, align 4, !tbaa !97
  call void @llvm.lifetime.start.p0(i64 4, ptr %5) #9
  %6 = call i32 @gtk_accelerator_get_default_mod_mask()
  store i32 %6, ptr %5, align 4, !tbaa !97
  %7 = load i32, ptr %3, align 4, !tbaa !97
  %8 = load i32, ptr @dt_modifier_shortcuts, align 4, !tbaa !97
  %9 = or i32 %7, %8
  %10 = load i32, ptr %5, align 4, !tbaa !97
  %11 = and i32 %9, %10
  %12 = load i32, ptr %4, align 4, !tbaa !97
  %13 = icmp eq i32 %11, %12
  %14 = zext i1 %13 to i32
  call void @llvm.lifetime.end.p0(i64 4, ptr %5) #9
  ret i32 %14
}

; Function Attrs: nounwind uwtable
define internal i32 @_lib_keymap_button_press_release(ptr noundef %0, ptr noundef %1, ptr noundef %2) #0 {
  %4 = alloca i32, align 4
  %5 = alloca ptr, align 8
  %6 = alloca ptr, align 8
  %7 = alloca ptr, align 8
  %8 = alloca i32, align 4
  %9 = alloca i32, align 4
  store ptr %0, ptr %5, align 8, !tbaa !68
  store ptr %1, ptr %6, align 8, !tbaa !154
  store ptr %2, ptr %7, align 8, !tbaa !92
  %10 = load ptr, ptr %6, align 8, !tbaa !154
  %11 = getelementptr inbounds nuw %struct._GdkEventButton, ptr %10, i32 0, i32 7
  %12 = load i32, ptr %11, align 8, !tbaa !156
  %13 = call i32 @dt_modifier_is(i32 noundef %12, i32 noundef 4)
  %14 = icmp ne i32 %13, 0
  %15 = xor i1 %14, true
  %16 = zext i1 %15 to i32
  %17 = load ptr, ptr getelementptr inbounds nuw (%struct.darktable_t, ptr @darktable, i32 0, i32 12), align 8, !tbaa !23
  %18 = getelementptr inbounds nuw %struct.dt_control_t, ptr %17, i32 0, i32 18
  store i32 %16, ptr %18, align 8, !tbaa !159
  call void @llvm.lifetime.start.p0(i64 4, ptr %8) #9
  store i32 0, ptr %8, align 4, !tbaa !97
  %19 = call ptr @gtk_settings_get_default()
  call void (ptr, ptr, ...) @g_object_get(ptr noundef %19, ptr noundef @.str.51, ptr noundef %8, ptr noundef null)
  %20 = load ptr, ptr %6, align 8, !tbaa !154
  %21 = getelementptr inbounds nuw %struct._GdkEventButton, ptr %20, i32 0, i32 0
  %22 = load i32, ptr %21, align 8, !tbaa !160
  %23 = icmp eq i32 %22, 4
  br i1 %23, label %24, label %29

24:                                               ; preds = %3
  %25 = load ptr, ptr %6, align 8, !tbaa !154
  %26 = getelementptr inbounds nuw %struct._GdkEventButton, ptr %25, i32 0, i32 8
  %27 = load i32, ptr %26, align 4, !tbaa !161
  %28 = icmp eq i32 %27, 3
  br i1 %28, label %42, label %29

29:                                               ; preds = %24, %3
  %30 = load ptr, ptr %6, align 8, !tbaa !154
  %31 = getelementptr inbounds nuw %struct._GdkEventButton, ptr %30, i32 0, i32 0
  %32 = load i32, ptr %31, align 8, !tbaa !160
  %33 = icmp eq i32 %32, 7
  br i1 %33, label %34, label %43

34:                                               ; preds = %29
  %35 = load ptr, ptr %6, align 8, !tbaa !154
  %36 = getelementptr inbounds nuw %struct._GdkEventButton, ptr %35, i32 0, i32 3
  %37 = load i32, ptr %36, align 4, !tbaa !162
  %38 = load i32, ptr @_lib_keymap_button_press_release.start_time, align 4, !tbaa !97
  %39 = sub i32 %37, %38
  %40 = load i32, ptr %8, align 4, !tbaa !97
  %41 = icmp ugt i32 %39, %40
  br i1 %41, label %42, label %43

42:                                               ; preds = %34, %24
  call void @_show_shortcuts_prefs(ptr noundef null)
  store i32 1, ptr %4, align 4
  store i32 1, ptr %9, align 4
  br label %47

43:                                               ; preds = %34, %29
  %44 = load ptr, ptr %6, align 8, !tbaa !154
  %45 = getelementptr inbounds nuw %struct._GdkEventButton, ptr %44, i32 0, i32 3
  %46 = load i32, ptr %45, align 4, !tbaa !162
  store i32 %46, ptr @_lib_keymap_button_press_release.start_time, align 4, !tbaa !97
  store i32 0, ptr %4, align 4
  store i32 1, ptr %9, align 4
  br label %47

47:                                               ; preds = %43, %42
  call void @llvm.lifetime.end.p0(i64 4, ptr %8) #9
  %48 = load i32, ptr %4, align 4
  ret i32 %48
}