; Function Attrs: nounwind uwtable
define internal range(i32 0, 2) i32 @_lib_keymap_button_press_release(ptr readnone captures(none) %0, ptr noundef readonly captures(none) %1, ptr readnone captures(none) %2) #1 {
  %4 = alloca i32, align 4
  %5 = getelementptr inbounds nuw i8, ptr %1, i64 48
  %6 = load i32, ptr %5, align 8, !tbaa !142
  %7 = tail call i32 @gtk_accelerator_get_default_mod_mask() #10
  %8 = load i32, ptr @dt_modifier_shortcuts, align 4, !tbaa !108
  %9 = or i32 %8, %6
  %10 = and i32 %9, %7
  %11 = icmp ne i32 %10, 4
  %12 = zext i1 %11 to i32
  %13 = load ptr, ptr getelementptr inbounds nuw (i8, ptr @darktable, i64 88), align 8, !tbaa !19
  %14 = getelementptr inbounds nuw i8, ptr %13, i64 584
  store i32 %12, ptr %14, align 8, !tbaa !147
  call void @llvm.lifetime.start.p0(i64 4, ptr nonnull %4) #10
  store i32 0, ptr %4, align 4, !tbaa !108
  %15 = tail call ptr @gtk_settings_get_default() #10
  call void (ptr, ptr, ...) @g_object_get(ptr noundef %15, ptr noundef nonnull @.str.51, ptr noundef nonnull %4, ptr noundef null) #10
  %16 = load i32, ptr %1, align 8, !tbaa !148
  switch i32 %16, label %.thread [
    i32 4, label %17
    i32 7, label %21
  ]

17:                                               ; preds = %3
  %18 = getelementptr inbounds nuw i8, ptr %1, i64 52
  %19 = load i32, ptr %18, align 4, !tbaa !149
  %20 = icmp eq i32 %19, 3
  br i1 %20, label %28, label %.thread

21:                                               ; preds = %3
  %22 = getelementptr inbounds nuw i8, ptr %1, i64 20
  %23 = load i32, ptr %22, align 4, !tbaa !150
  %24 = load i32, ptr @_lib_keymap_button_press_release.start_time, align 4, !tbaa !108
  %25 = sub i32 %23, %24
  %26 = load i32, ptr %4, align 4, !tbaa !108
  %27 = icmp ugt i32 %25, %26
  br i1 %27, label %28, label %.thread

28:                                               ; preds = %21, %17
  call fastcc void @_show_shortcuts_prefs(ptr noundef null)
  br label %31

.thread:                                          ; preds = %3, %17, %21
  %29 = getelementptr inbounds nuw i8, ptr %1, i64 20
  %30 = load i32, ptr %29, align 4, !tbaa !150
  store i32 %30, ptr @_lib_keymap_button_press_release.start_time, align 4, !tbaa !108
  br label %31

31:                                               ; preds = %.thread, %28
  %.0 = phi i32 [ 1, %28 ], [ 0, %.thread ]
  call void @llvm.lifetime.end.p0(i64 4, ptr nonnull %4) #10
  ret i32 %.0
}